	.file	"hello_world.cpp"
	.text
.Ltext0:
	.local	_ZStL8__ioinit
	.comm	_ZStL8__ioinit,1,1
	.section	.rodata
.LC0:
	.string	"Hello World1"
.LC1:
	.string	"Hello world2"
.LC2:
	.string	"End.\n\n"
	.text
	.globl	main
	.type	main, @function
main:
.LFB1795:
	.file 1 "/home/gabriel/GS/dev/eRCaGuy_hello_world/cpp/hello_world.cpp"
	.loc 1 76 0
	.cfi_startproc
	pushq	%rbp
	.cfi_def_cfa_offset 16
	.cfi_offset 6, -16
	movq	%rsp, %rbp
	.cfi_def_cfa_register 6
	.loc 1 78 0
	leaq	.LC0(%rip), %rdi
	call	puts@PLT
	.loc 1 80 0
	leaq	.LC1(%rip), %rsi
	leaq	_ZSt4cout(%rip), %rdi
	call	_ZStlsISt11char_traitsIcEERSt13basic_ostreamIcT_ES5_PKc@PLT
	movq	%rax, %rdx
	movq	_ZSt4endlIcSt11char_traitsIcEERSt13basic_ostreamIT_T0_ES6_@GOTPCREL(%rip), %rax
	movq	%rax, %rsi
	movq	%rdx, %rdi
	call	_ZNSolsEPFRSoS_E@PLT
	.loc 1 81 0
	leaq	.LC2(%rip), %rsi
	leaq	_ZSt4cout(%rip), %rdi
	call	_ZStlsISt11char_traitsIcEERSt13basic_ostreamIcT_ES5_PKc@PLT
	.loc 1 83 0
	movl	$0, %eax
	.loc 1 84 0
	popq	%rbp
	.cfi_def_cfa 7, 8
	ret
	.cfi_endproc
.LFE1795:
	.size	main, .-main
	.type	_Z41__static_initialization_and_destruction_0ii, @function
_Z41__static_initialization_and_destruction_0ii:
.LFB2304:
	.loc 1 84 0
	.cfi_startproc
	pushq	%rbp
	.cfi_def_cfa_offset 16
	.cfi_offset 6, -16
	movq	%rsp, %rbp
	.cfi_def_cfa_register 6
	subq	$16, %rsp
	movl	%edi, -4(%rbp)
	movl	%esi, -8(%rbp)
	.loc 1 84 0
	cmpl	$1, -4(%rbp)
	jne	.L5
	.loc 1 84 0 is_stmt 0 discriminator 1
	cmpl	$65535, -8(%rbp)
	jne	.L5
	.file 2 "/usr/include/c++/7/iostream"
	.loc 2 74 0 is_stmt 1
	leaq	_ZStL8__ioinit(%rip), %rdi
	call	_ZNSt8ios_base4InitC1Ev@PLT
	leaq	__dso_handle(%rip), %rdx
	leaq	_ZStL8__ioinit(%rip), %rsi
	movq	_ZNSt8ios_base4InitD1Ev@GOTPCREL(%rip), %rax
	movq	%rax, %rdi
	call	__cxa_atexit@PLT
.L5:
	.loc 1 84 0
	nop
	leave
	.cfi_def_cfa 7, 8
	ret
	.cfi_endproc
.LFE2304:
	.size	_Z41__static_initialization_and_destruction_0ii, .-_Z41__static_initialization_and_destruction_0ii
	.type	_GLOBAL__sub_I_main, @function
_GLOBAL__sub_I_main:
.LFB2305:
	.loc 1 84 0
	.cfi_startproc
	pushq	%rbp
	.cfi_def_cfa_offset 16
	.cfi_offset 6, -16
	movq	%rsp, %rbp
	.cfi_def_cfa_register 6
	.loc 1 84 0
	movl	$65535, %esi
	movl	$1, %edi
	call	_Z41__static_initialization_and_destruction_0ii
	popq	%rbp
	.cfi_def_cfa 7, 8
	ret
	.cfi_endproc
.LFE2305:
	.size	_GLOBAL__sub_I_main, .-_GLOBAL__sub_I_main
	.section	.init_array,"aw"
	.align 8
	.quad	_GLOBAL__sub_I_main
	.text
.Letext0:
	.file 3 "/usr/lib/gcc/x86_64-linux-gnu/7/include/stddef.h"
	.file 4 "/usr/include/x86_64-linux-gnu/bits/types.h"
	.file 5 "/usr/include/x86_64-linux-gnu/bits/types/__FILE.h"
	.file 6 "/usr/include/x86_64-linux-gnu/bits/libio.h"
	.file 7 "/usr/include/x86_64-linux-gnu/bits/types/FILE.h"
	.file 8 "/usr/include/x86_64-linux-gnu/bits/types/__mbstate_t.h"
	.file 9 "/usr/include/x86_64-linux-gnu/bits/_G_config.h"
	.file 10 "<built-in>"
	.file 11 "/usr/include/stdio.h"
	.file 12 "/usr/include/x86_64-linux-gnu/bits/sys_errlist.h"
	.file 13 "/usr/include/c++/7/cwchar"
	.file 14 "/usr/include/c++/7/new"
	.file 15 "/usr/include/c++/7/bits/exception_ptr.h"
	.file 16 "/usr/include/x86_64-linux-gnu/c++/7/bits/c++config.h"
	.file 17 "/usr/include/c++/7/type_traits"
	.file 18 "/usr/include/c++/7/bits/stl_pair.h"
	.file 19 "/usr/include/c++/7/debug/debug.h"
	.file 20 "/usr/include/c++/7/bits/char_traits.h"
	.file 21 "/usr/include/c++/7/cstdint"
	.file 22 "/usr/include/c++/7/clocale"
	.file 23 "/usr/include/c++/7/limits"
	.file 24 "/usr/include/c++/7/string_view"
	.file 25 "/usr/include/c++/7/bits/basic_string.h"
	.file 26 "/usr/include/c++/7/cstdlib"
	.file 27 "/usr/include/c++/7/cstdio"
	.file 28 "/usr/include/c++/7/system_error"
	.file 29 "/usr/include/c++/7/bits/ios_base.h"
	.file 30 "/usr/include/c++/7/cwctype"
	.file 31 "/usr/include/c++/7/istream"
	.file 32 "/usr/include/c++/7/iosfwd"
	.file 33 "/usr/include/c++/7/ostream"
	.file 34 "/usr/include/c++/7/bits/predefined_ops.h"
	.file 35 "/usr/include/c++/7/ext/new_allocator.h"
	.file 36 "/usr/include/c++/7/ext/numeric_traits.h"
	.file 37 "/usr/include/x86_64-linux-gnu/bits/types/wint_t.h"
	.file 38 "/usr/include/x86_64-linux-gnu/bits/types/mbstate_t.h"
	.file 39 "/usr/include/wchar.h"
	.file 40 "/usr/include/x86_64-linux-gnu/bits/types/struct_tm.h"
	.file 41 "/usr/include/x86_64-linux-gnu/bits/stdint-intn.h"
	.file 42 "/usr/include/x86_64-linux-gnu/bits/stdint-uintn.h"
	.file 43 "/usr/include/stdint.h"
	.file 44 "/usr/include/locale.h"
	.file 45 "/usr/include/time.h"
	.file 46 "/usr/include/x86_64-linux-gnu/c++/7/bits/atomic_word.h"
	.file 47 "/usr/include/stdlib.h"
	.file 48 "/usr/include/errno.h"
	.file 49 "/usr/include/x86_64-linux-gnu/bits/wctype-wchar.h"
	.file 50 "/usr/include/wctype.h"
	.section	.note.GNU-stack,"",@progbits
